target datalayout = "e-m:e-p270:32:32-p271:32:32-p272:64:64-i64:64-i128:128-f80:128-n8:16:32:64-S128"
target triple = "x86_64-pc-linux-gnu"

; Function Attrs: nounwind uwtable
define internal void @vert_left_4x4_c(ptr noundef %0, i64 noundef %1, ptr noundef %2, ptr noundef %3) #1 {
  %5 = alloca ptr, align 8
  %6 = alloca i64, align 8
  %7 = alloca ptr, align 8
  %8 = alloca ptr, align 8
  %9 = alloca ptr, align 8
  %10 = alloca ptr, align 8
  %11 = alloca i32, align 4
  %12 = alloca i32, align 4
  %13 = alloca i32, align 4
  %14 = alloca i32, align 4
  %15 = alloca i32, align 4
  %16 = alloca i32, align 4
  %17 = alloca i32, align 4
  store ptr %0, ptr %5, align 8, !tbaa !10
  store i64 %1, ptr %6, align 8, !tbaa !12
  store ptr %2, ptr %7, align 8, !tbaa !10
  store ptr %3, ptr %8, align 8, !tbaa !10
  call void @llvm.lifetime.start.p0(i64 8, ptr %9) #9
  %18 = load ptr, ptr %5, align 8, !tbaa !10
  store ptr %18, ptr %9, align 8, !tbaa !14
  call void @llvm.lifetime.start.p0(i64 8, ptr %10) #9
  %19 = load ptr, ptr %8, align 8, !tbaa !10
  store ptr %19, ptr %10, align 8, !tbaa !14
  call void @llvm.lifetime.start.p0(i64 4, ptr %11) #9
  %20 = load ptr, ptr %10, align 8, !tbaa !14
  %21 = getelementptr inbounds i16, ptr %20, i64 0
  %22 = load i16, ptr %21, align 2, !tbaa !17
  %23 = zext i16 %22 to i32
  store i32 %23, ptr %11, align 4, !tbaa !19
  call void @llvm.lifetime.start.p0(i64 4, ptr %12) #9
  %24 = load ptr, ptr %10, align 8, !tbaa !14
  %25 = getelementptr inbounds i16, ptr %24, i64 1
  %26 = load i16, ptr %25, align 2, !tbaa !17
  %27 = zext i16 %26 to i32
  store i32 %27, ptr %12, align 4, !tbaa !19
  call void @llvm.lifetime.start.p0(i64 4, ptr %13) #9
  %28 = load ptr, ptr %10, align 8, !tbaa !14
  %29 = getelementptr inbounds i16, ptr %28, i64 2
  %30 = load i16, ptr %29, align 2, !tbaa !17
  %31 = zext i16 %30 to i32
  store i32 %31, ptr %13, align 4, !tbaa !19
  call void @llvm.lifetime.start.p0(i64 4, ptr %14) #9
  %32 = load ptr, ptr %10, align 8, !tbaa !14
  %33 = getelementptr inbounds i16, ptr %32, i64 3
  %34 = load i16, ptr %33, align 2, !tbaa !17
  %35 = zext i16 %34 to i32
  store i32 %35, ptr %14, align 4, !tbaa !19
  call void @llvm.lifetime.start.p0(i64 4, ptr %15) #9
  %36 = load ptr, ptr %10, align 8, !tbaa !14
  %37 = getelementptr inbounds i16, ptr %36, i64 4
  %38 = load i16, ptr %37, align 2, !tbaa !17
  %39 = zext i16 %38 to i32
  store i32 %39, ptr %15, align 4, !tbaa !19
  call void @llvm.lifetime.start.p0(i64 4, ptr %16) #9
  %40 = load ptr, ptr %10, align 8, !tbaa !14
  %41 = getelementptr inbounds i16, ptr %40, i64 5
  %42 = load i16, ptr %41, align 2, !tbaa !17
  %43 = zext i16 %42 to i32
  store i32 %43, ptr %16, align 4, !tbaa !19
  call void @llvm.lifetime.start.p0(i64 4, ptr %17) #9
  %44 = load ptr, ptr %10, align 8, !tbaa !14
  %45 = getelementptr inbounds i16, ptr %44, i64 6
  %46 = load i16, ptr %45, align 2, !tbaa !17
  %47 = zext i16 %46 to i32
  store i32 %47, ptr %17, align 4, !tbaa !19
  %48 = load i64, ptr %6, align 8, !tbaa !12
  %49 = udiv i64 %48, 2
  store i64 %49, ptr %6, align 8, !tbaa !12
  %50 = load i32, ptr %11, align 4, !tbaa !19
  %51 = load i32, ptr %12, align 4, !tbaa !19
  %52 = add nsw i32 %50, %51
  %53 = add nsw i32 %52, 1
  %54 = ashr i32 %53, 1
  %55 = trunc i32 %54 to i16
  %56 = load ptr, ptr %9, align 8, !tbaa !14
  %57 = load i64, ptr %6, align 8, !tbaa !12
  %58 = mul nsw i64 0, %57
  %59 = add nsw i64 0, %58
  %60 = getelementptr inbounds i16, ptr %56, i64 %59
  store i16 %55, ptr %60, align 2, !tbaa !17
  %61 = load i32, ptr %11, align 4, !tbaa !19
  %62 = load i32, ptr %12, align 4, !tbaa !19
  %63 = mul nsw i32 %62, 2
  %64 = add nsw i32 %61, %63
  %65 = load i32, ptr %13, align 4, !tbaa !19
  %66 = add nsw i32 %64, %65
  %67 = add nsw i32 %66, 2
  %68 = ashr i32 %67, 2
  %69 = trunc i32 %68 to i16
  %70 = load ptr, ptr %9, align 8, !tbaa !14
  %71 = load i64, ptr %6, align 8, !tbaa !12
  %72 = mul nsw i64 1, %71
  %73 = add nsw i64 0, %72
  %74 = getelementptr inbounds i16, ptr %70, i64 %73
  store i16 %69, ptr %74, align 2, !tbaa !17
  %75 = load i32, ptr %12, align 4, !tbaa !19
  %76 = load i32, ptr %13, align 4, !tbaa !19
  %77 = add nsw i32 %75, %76
  %78 = add nsw i32 %77, 1
  %79 = ashr i32 %78, 1
  %80 = trunc i32 %79 to i16
  %81 = load ptr, ptr %9, align 8, !tbaa !14
  %82 = load i64, ptr %6, align 8, !tbaa !12
  %83 = mul nsw i64 2, %82
  %84 = add nsw i64 0, %83
  %85 = getelementptr inbounds i16, ptr %81, i64 %84
  store i16 %80, ptr %85, align 2, !tbaa !17
  %86 = load ptr, ptr %9, align 8, !tbaa !14
  %87 = load i64, ptr %6, align 8, !tbaa !12
  %88 = mul nsw i64 0, %87
  %89 = add nsw i64 1, %88
  %90 = getelementptr inbounds i16, ptr %86, i64 %89
  store i16 %80, ptr %90, align 2, !tbaa !17
  %91 = load i32, ptr %12, align 4, !tbaa !19
  %92 = load i32, ptr %13, align 4, !tbaa !19
  %93 = mul nsw i32 %92, 2
  %94 = add nsw i32 %91, %93
  %95 = load i32, ptr %14, align 4, !tbaa !19
  %96 = add nsw i32 %94, %95
  %97 = add nsw i32 %96, 2
  %98 = ashr i32 %97, 2
  %99 = trunc i32 %98 to i16
  %100 = load ptr, ptr %9, align 8, !tbaa !14
  %101 = load i64, ptr %6, align 8, !tbaa !12
  %102 = mul nsw i64 3, %101
  %103 = add nsw i64 0, %102
  %104 = getelementptr inbounds i16, ptr %100, i64 %103
  store i16 %99, ptr %104, align 2, !tbaa !17
  %105 = load ptr, ptr %9, align 8, !tbaa !14
  %106 = load i64, ptr %6, align 8, !tbaa !12
  %107 = mul nsw i64 1, %106
  %108 = add nsw i64 1, %107
  %109 = getelementptr inbounds i16, ptr %105, i64 %108
  store i16 %99, ptr %109, align 2, !tbaa !17
  %110 = load i32, ptr %13, align 4, !tbaa !19
  %111 = load i32, ptr %14, align 4, !tbaa !19
  %112 = add nsw i32 %110, %111
  %113 = add nsw i32 %112, 1
  %114 = ashr i32 %113, 1
  %115 = trunc i32 %114 to i16
  %116 = load ptr, ptr %9, align 8, !tbaa !14
  %117 = load i64, ptr %6, align 8, !tbaa !12
  %118 = mul nsw i64 2, %117
  %119 = add nsw i64 1, %118
  %120 = getelementptr inbounds i16, ptr %116, i64 %119
  store i16 %115, ptr %120, align 2, !tbaa !17
  %121 = load ptr, ptr %9, align 8, !tbaa !14
  %122 = load i64, ptr %6, align 8, !tbaa !12
  %123 = mul nsw i64 0, %122
  %124 = add nsw i64 2, %123
  %125 = getelementptr inbounds i16, ptr %121, i64 %124
  store i16 %115, ptr %125, align 2, !tbaa !17
  %126 = load i32, ptr %13, align 4, !tbaa !19
  %127 = load i32, ptr %14, align 4, !tbaa !19
  %128 = mul nsw i32 %127, 2
  %129 = add nsw i32 %126, %128
  %130 = load i32, ptr %15, align 4, !tbaa !19
  %131 = add nsw i32 %129, %130
  %132 = add nsw i32 %131, 2
  %133 = ashr i32 %132, 2
  %134 = trunc i32 %133 to i16
  %135 = load ptr, ptr %9, align 8, !tbaa !14
  %136 = load i64, ptr %6, align 8, !tbaa !12
  %137 = mul nsw i64 3, %136
  %138 = add nsw i64 1, %137
  %139 = getelementptr inbounds i16, ptr %135, i64 %138
  store i16 %134, ptr %139, align 2, !tbaa !17
  %140 = load ptr, ptr %9, align 8, !tbaa !14
  %141 = load i64, ptr %6, align 8, !tbaa !12
  %142 = mul nsw i64 1, %141
  %143 = add nsw i64 2, %142
  %144 = getelementptr inbounds i16, ptr %140, i64 %143
  store i16 %134, ptr %144, align 2, !tbaa !17
  %145 = load i32, ptr %14, align 4, !tbaa !19
  %146 = load i32, ptr %15, align 4, !tbaa !19
  %147 = add nsw i32 %145, %146
  %148 = add nsw i32 %147, 1
  %149 = ashr i32 %148, 1
  %150 = trunc i32 %149 to i16
  %151 = load ptr, ptr %9, align 8, !tbaa !14
  %152 = load i64, ptr %6, align 8, !tbaa !12
  %153 = mul nsw i64 2, %152
  %154 = add nsw i64 2, %153
  %155 = getelementptr inbounds i16, ptr %151, i64 %154
  store i16 %150, ptr %155, align 2, !tbaa !17
  %156 = load ptr, ptr %9, align 8, !tbaa !14
  %157 = load i64, ptr %6, align 8, !tbaa !12
  %158 = mul nsw i64 0, %157
  %159 = add nsw i64 3, %158
  %160 = getelementptr inbounds i16, ptr %156, i64 %159
  store i16 %150, ptr %160, align 2, !tbaa !17
  %161 = load i32, ptr %14, align 4, !tbaa !19
  %162 = load i32, ptr %15, align 4, !tbaa !19
  %163 = mul nsw i32 %162, 2
  %164 = add nsw i32 %161, %163
  %165 = load i32, ptr %16, align 4, !tbaa !19
  %166 = add nsw i32 %164, %165
  %167 = add nsw i32 %166, 2
  %168 = ashr i32 %167, 2
  %169 = trunc i32 %168 to i16
  %170 = load ptr, ptr %9, align 8, !tbaa !14
  %171 = load i64, ptr %6, align 8, !tbaa !12
  %172 = mul nsw i64 3, %171
  %173 = add nsw i64 2, %172
  %174 = getelementptr inbounds i16, ptr %170, i64 %173
  store i16 %169, ptr %174, align 2, !tbaa !17
  %175 = load ptr, ptr %9, align 8, !tbaa !14
  %176 = load i64, ptr %6, align 8, !tbaa !12
  %177 = mul nsw i64 1, %176
  %178 = add nsw i64 3, %177
  %179 = getelementptr inbounds i16, ptr %175, i64 %178
  store i16 %169, ptr %179, align 2, !tbaa !17
  %180 = load i32, ptr %15, align 4, !tbaa !19
  %181 = load i32, ptr %16, align 4, !tbaa !19
  %182 = add nsw i32 %180, %181
  %183 = add nsw i32 %182, 1
  %184 = ashr i32 %183, 1
  %185 = trunc i32 %184 to i16
  %186 = load ptr, ptr %9, align 8, !tbaa !14
  %187 = load i64, ptr %6, align 8, !tbaa !12
  %188 = mul nsw i64 2, %187
  %189 = add nsw i64 3, %188
  %190 = getelementptr inbounds i16, ptr %186, i64 %189
  store i16 %185, ptr %190, align 2, !tbaa !17
  %191 = load i32, ptr %15, align 4, !tbaa !19
  %192 = load i32, ptr %16, align 4, !tbaa !19
  %193 = mul nsw i32 %192, 2
  %194 = add nsw i32 %191, %193
  %195 = load i32, ptr %17, align 4, !tbaa !19
  %196 = add nsw i32 %194, %195
  %197 = add nsw i32 %196, 2
  %198 = ashr i32 %197, 2
  %199 = trunc i32 %198 to i16
  %200 = load ptr, ptr %9, align 8, !tbaa !14
  %201 = load i64, ptr %6, align 8, !tbaa !12
  %202 = mul nsw i64 3, %201
  %203 = add nsw i64 3, %202
  %204 = getelementptr inbounds i16, ptr %200, i64 %203
  store i16 %199, ptr %204, align 2, !tbaa !17
  call void @llvm.lifetime.end.p0(i64 4, ptr %17) #9
  call void @llvm.lifetime.end.p0(i64 4, ptr %16) #9
  call void @llvm.lifetime.end.p0(i64 4, ptr %15) #9
  call void @llvm.lifetime.end.p0(i64 4, ptr %14) #9
  call void @llvm.lifetime.end.p0(i64 4, ptr %13) #9
  call void @llvm.lifetime.end.p0(i64 4, ptr %12) #9
  call void @llvm.lifetime.end.p0(i64 4, ptr %11) #9
  call void @llvm.lifetime.end.p0(i64 8, ptr %10) #9
  call void @llvm.lifetime.end.p0(i64 8, ptr %9) #9
  ret void
}