; Function Attrs: mustprogress nofree norecurse nosync nounwind willreturn memory(argmem: readwrite) uwtable
define internal void @vert_left_4x4_c(ptr noundef writeonly captures(none) initializes((0, 8)) %0, i64 noundef %1, ptr readnone captures(none) %2, ptr noundef readonly captures(none) %3) #1 {
  %5 = load i16, ptr %3, align 2, !tbaa !9
  %6 = zext i16 %5 to i32
  %7 = getelementptr inbounds nuw i8, ptr %3, i64 2
  %8 = load i16, ptr %7, align 2, !tbaa !9
  %9 = zext i16 %8 to i32
  %10 = getelementptr inbounds nuw i8, ptr %3, i64 4
  %11 = load i16, ptr %10, align 2, !tbaa !9
  %12 = zext i16 %11 to i32
  %13 = getelementptr inbounds nuw i8, ptr %3, i64 6
  %14 = load i16, ptr %13, align 2, !tbaa !9
  %15 = zext i16 %14 to i32
  %16 = getelementptr inbounds nuw i8, ptr %3, i64 8
  %17 = load i16, ptr %16, align 2, !tbaa !9
  %18 = zext i16 %17 to i32
  %19 = getelementptr inbounds nuw i8, ptr %3, i64 10
  %20 = load i16, ptr %19, align 2, !tbaa !9
  %21 = zext i16 %20 to i32
  %22 = getelementptr inbounds nuw i8, ptr %3, i64 12
  %23 = load i16, ptr %22, align 2, !tbaa !9
  %24 = zext i16 %23 to i32
  %25 = lshr i64 %1, 1
  %26 = add nuw nsw i32 %9, 1
  %27 = add nuw nsw i32 %26, %6
  %28 = lshr i32 %27, 1
  %29 = trunc nuw i32 %28 to i16
  store i16 %29, ptr %0, align 2, !tbaa !9
  %30 = shl nuw nsw i32 %9, 1
  %31 = add nuw nsw i32 %12, 2
  %32 = add nuw nsw i32 %31, %6
  %33 = add nuw nsw i32 %32, %30
  %34 = lshr i32 %33, 2
  %35 = trunc nuw i32 %34 to i16
  %36 = getelementptr inbounds nuw i16, ptr %0, i64 %25
  store i16 %35, ptr %36, align 2, !tbaa !9
  %37 = add nuw nsw i32 %26, %12
  %38 = lshr i32 %37, 1
  %39 = trunc nuw i32 %38 to i16
  %40 = and i64 %1, -2
  %41 = getelementptr inbounds nuw i16, ptr %0, i64 %40
  store i16 %39, ptr %41, align 2, !tbaa !9
  %42 = getelementptr inbounds nuw i8, ptr %0, i64 2
  store i16 %39, ptr %42, align 2, !tbaa !9
  %43 = shl nuw nsw i32 %12, 1
  %44 = add nuw nsw i32 %15, 2
  %45 = add nuw nsw i32 %44, %9
  %46 = add nuw nsw i32 %45, %43
  %47 = lshr i32 %46, 2
  %48 = trunc nuw i32 %47 to i16
  %.idx = mul nuw nsw i64 %25, 6
  %49 = getelementptr inbounds nuw i8, ptr %0, i64 %.idx
  store i16 %48, ptr %49, align 2, !tbaa !9
  %50 = getelementptr inbounds nuw i8, ptr %36, i64 2
  store i16 %48, ptr %50, align 2, !tbaa !9
  %51 = add nuw nsw i32 %12, 1
  %52 = add nuw nsw i32 %51, %15
  %53 = lshr i32 %52, 1
  %54 = trunc nuw i32 %53 to i16
  %55 = or i64 %1, 1
  %56 = getelementptr inbounds nuw i16, ptr %0, i64 %55
  store i16 %54, ptr %56, align 2, !tbaa !9
  %57 = getelementptr inbounds nuw i8, ptr %0, i64 4
  store i16 %54, ptr %57, align 2, !tbaa !9
  %58 = shl nuw nsw i32 %15, 1
  %59 = add nuw nsw i32 %31, %58
  %60 = add nuw nsw i32 %59, %18
  %61 = lshr i32 %60, 2
  %62 = trunc nuw i32 %61 to i16
  %63 = getelementptr inbounds nuw i8, ptr %49, i64 2
  store i16 %62, ptr %63, align 2, !tbaa !9
  %64 = getelementptr inbounds nuw i8, ptr %36, i64 4
  store i16 %62, ptr %64, align 2, !tbaa !9
  %65 = add nuw nsw i32 %15, 1
  %66 = add nuw nsw i32 %65, %18
  %67 = lshr i32 %66, 1
  %68 = trunc nuw i32 %67 to i16
  %69 = getelementptr inbounds nuw i8, ptr %41, i64 4
  store i16 %68, ptr %69, align 2, !tbaa !9
  %70 = getelementptr inbounds nuw i8, ptr %0, i64 6
  store i16 %68, ptr %70, align 2, !tbaa !9
  %71 = shl nuw nsw i32 %18, 1
  %72 = add nuw nsw i32 %44, %71
  %73 = add nuw nsw i32 %72, %21
  %74 = lshr i32 %73, 2
  %75 = trunc nuw i32 %74 to i16
  %76 = getelementptr inbounds nuw i8, ptr %49, i64 4
  store i16 %75, ptr %76, align 2, !tbaa !9
  %77 = getelementptr inbounds nuw i8, ptr %36, i64 6
  store i16 %75, ptr %77, align 2, !tbaa !9
  %78 = add nuw nsw i32 %18, 1
  %79 = add nuw nsw i32 %78, %21
  %80 = lshr i32 %79, 1
  %81 = trunc nuw i32 %80 to i16
  %82 = getelementptr inbounds nuw i8, ptr %41, i64 6
  store i16 %81, ptr %82, align 2, !tbaa !9
  %83 = shl nuw nsw i32 %21, 1
  %84 = add nuw nsw i32 %18, 2
  %85 = add nuw nsw i32 %84, %83
  %86 = add nuw nsw i32 %85, %24
  %87 = lshr i32 %86, 2
  %88 = trunc nuw i32 %87 to i16
  %89 = getelementptr inbounds nuw i8, ptr %49, i64 6
  store i16 %88, ptr %89, align 2, !tbaa !9
  ret void
}